target datalayout = "e-m:e-p270:32:32-p271:32:32-p272:64:64-i64:64-i128:128-f80:128-n8:16:32:64-S128"
target triple = "x86_64-pc-linux-gnu"

%"struct.faiss::IndexPreTransform" = type <{ %"struct.faiss::Index.base", [4 x i8], %"class.std::vector", ptr, i8, [7 x i8] }>
%"struct.faiss::Index.base" = type <{ ptr, i32, [4 x i8], i64, i8, i8, [2 x i8], i32, float }>
%"class.std::vector" = type { %"struct.std::_Vector_base" }
%"struct.std::_Vector_base" = type { %"struct.std::_Vector_base<faiss::VectorTransform *, std::allocator<faiss::VectorTransform *>>::_Vector_impl" }
%"struct.std::_Vector_base<faiss::VectorTransform *, std::allocator<faiss::VectorTransform *>>::_Vector_impl" = type { %"struct.std::_Vector_base<faiss::VectorTransform *, std::allocator<faiss::VectorTransform *>>::_Vector_impl_data" }
%"struct.std::_Vector_base<faiss::VectorTransform *, std::allocator<faiss::VectorTransform *>>::_Vector_impl_data" = type { ptr, ptr, ptr }

; Function Attrs: mustprogress uwtable
define noundef i64 @_ZNK5faiss17IndexPreTransform12sa_code_sizeEv(ptr noundef nonnull align 8 dereferenceable(73) %0) unnamed_addr #1 align 2 {
  %2 = alloca ptr, align 8
  store ptr %0, ptr %2, align 8, !tbaa !4
  %3 = load ptr, ptr %2, align 8
  %4 = getelementptr inbounds nuw %"struct.faiss::IndexPreTransform", ptr %3, i32 0, i32 3
  %5 = load ptr, ptr %4, align 8, !tbaa !15
  %6 = load ptr, ptr %5, align 8, !tbaa !47
  %7 = getelementptr inbounds ptr, ptr %6, i64 17
  %8 = load ptr, ptr %7, align 8
  %9 = call noundef i64 %8(ptr noundef nonnull align 8 dereferenceable(36) %5)
  ret i64 %9
}