; Function Attrs: mustprogress uwtable
define noundef i64 @_ZNK5faiss17IndexPreTransform12sa_code_sizeEv(ptr noundef nonnull readonly align 8 captures(none) dereferenceable(73) %0) unnamed_addr #1 align 2 {
  %2 = getelementptr inbounds nuw i8, ptr %0, i64 64
  %3 = load ptr, ptr %2, align 8, !tbaa !4
  %4 = load ptr, ptr %3, align 8, !tbaa !42
  %5 = getelementptr inbounds nuw i8, ptr %4, i64 136
  %6 = load ptr, ptr %5, align 8
  %7 = tail call noundef i64 %6(ptr noundef nonnull align 8 dereferenceable(36) %3)
  ret i64 %7
}